target datalayout = "e-m:e-p270:32:32-p271:32:32-p272:64:64-i64:64-i128:128-f80:128-n8:16:32:64-S128"
target triple = "x86_64-pc-linux-gnu"

%struct._lv_chart_t = type { %struct._lv_obj_t, %struct.lv_ll_t, %struct.lv_ll_t, [2 x i32], [2 x i32], [2 x i32], [2 x i32], i32, i32, i32, i32, i8 }
%struct._lv_obj_t = type { ptr, ptr, ptr, ptr, ptr, %struct.lv_area_t, i32, i16, i16 }
%struct.lv_area_t = type { i32, i32, i32, i32 }
%struct.lv_ll_t = type { i32, ptr, ptr }

; Function Attrs: nounwind uwtable
define void @lv_chart_refresh(ptr noundef %0) #0 {
  %2 = alloca ptr, align 8
  store ptr %0, ptr %2, align 8, !tbaa !3
  br label %3

3:                                                ; preds = %1
  br label %4

4:                                                ; preds = %3
  %5 = load ptr, ptr %2, align 8, !tbaa !3
  call void @lv_obj_invalidate(ptr noundef %5)
  ret void
}

; Function Attrs: nounwind uwtable
define void @lv_chart_set_range(ptr noundef %0, i32 noundef %1, i32 noundef %2, i32 noundef %3) #0 {
  %5 = alloca ptr, align 8
  %6 = alloca i32, align 4
  %7 = alloca i32, align 4
  %8 = alloca i32, align 4
  %9 = alloca ptr, align 8
  %10 = alloca i32, align 4
  store ptr %0, ptr %5, align 8, !tbaa !3
  store i32 %1, ptr %6, align 4, !tbaa !7
  store i32 %2, ptr %7, align 4, !tbaa !7
  store i32 %3, ptr %8, align 4, !tbaa !7
  br label %11

11:                                               ; preds = %4
  br label %12

12:                                               ; preds = %11
  %13 = load i32, ptr %8, align 4, !tbaa !7
  %14 = load i32, ptr %7, align 4, !tbaa !7
  %15 = icmp eq i32 %13, %14
  br i1 %15, label %16, label %19

16:                                               ; preds = %12
  %17 = load i32, ptr %8, align 4, !tbaa !7
  %18 = add nsw i32 %17, 1
  br label %21

19:                                               ; preds = %12
  %20 = load i32, ptr %8, align 4, !tbaa !7
  br label %21

21:                                               ; preds = %19, %16
  %22 = phi i32 [ %18, %16 ], [ %20, %19 ]
  store i32 %22, ptr %8, align 4, !tbaa !7
  call void @llvm.lifetime.start.p0(i64 8, ptr %9) #5
  %23 = load ptr, ptr %5, align 8, !tbaa !3
  store ptr %23, ptr %9, align 8, !tbaa !3
  %24 = load i32, ptr %6, align 4, !tbaa !7
  switch i32 %24, label %61 [
    i32 0, label %25
    i32 1, label %34
    i32 2, label %43
    i32 4, label %52
  ]

25:                                               ; preds = %21
  %26 = load i32, ptr %7, align 4, !tbaa !7
  %27 = load ptr, ptr %9, align 8, !tbaa !3
  %28 = getelementptr inbounds nuw %struct._lv_chart_t, ptr %27, i32 0, i32 3
  %29 = getelementptr inbounds [2 x i32], ptr %28, i64 0, i64 0
  store i32 %26, ptr %29, align 8, !tbaa !7
  %30 = load i32, ptr %8, align 4, !tbaa !7
  %31 = load ptr, ptr %9, align 8, !tbaa !3
  %32 = getelementptr inbounds nuw %struct._lv_chart_t, ptr %31, i32 0, i32 4
  %33 = getelementptr inbounds [2 x i32], ptr %32, i64 0, i64 0
  store i32 %30, ptr %33, align 8, !tbaa !7
  br label %65

34:                                               ; preds = %21
  %35 = load i32, ptr %7, align 4, !tbaa !7
  %36 = load ptr, ptr %9, align 8, !tbaa !3
  %37 = getelementptr inbounds nuw %struct._lv_chart_t, ptr %36, i32 0, i32 3
  %38 = getelementptr inbounds [2 x i32], ptr %37, i64 0, i64 1
  store i32 %35, ptr %38, align 4, !tbaa !7
  %39 = load i32, ptr %8, align 4, !tbaa !7
  %40 = load ptr, ptr %9, align 8, !tbaa !3
  %41 = getelementptr inbounds nuw %struct._lv_chart_t, ptr %40, i32 0, i32 4
  %42 = getelementptr inbounds [2 x i32], ptr %41, i64 0, i64 1
  store i32 %39, ptr %42, align 4, !tbaa !7
  br label %65

43:                                               ; preds = %21
  %44 = load i32, ptr %7, align 4, !tbaa !7
  %45 = load ptr, ptr %9, align 8, !tbaa !3
  %46 = getelementptr inbounds nuw %struct._lv_chart_t, ptr %45, i32 0, i32 5
  %47 = getelementptr inbounds [2 x i32], ptr %46, i64 0, i64 0
  store i32 %44, ptr %47, align 8, !tbaa !7
  %48 = load i32, ptr %8, align 4, !tbaa !7
  %49 = load ptr, ptr %9, align 8, !tbaa !3
  %50 = getelementptr inbounds nuw %struct._lv_chart_t, ptr %49, i32 0, i32 6
  %51 = getelementptr inbounds [2 x i32], ptr %50, i64 0, i64 0
  store i32 %48, ptr %51, align 8, !tbaa !7
  br label %65

52:                                               ; preds = %21
  %53 = load i32, ptr %7, align 4, !tbaa !7
  %54 = load ptr, ptr %9, align 8, !tbaa !3
  %55 = getelementptr inbounds nuw %struct._lv_chart_t, ptr %54, i32 0, i32 5
  %56 = getelementptr inbounds [2 x i32], ptr %55, i64 0, i64 1
  store i32 %53, ptr %56, align 4, !tbaa !7
  %57 = load i32, ptr %8, align 4, !tbaa !7
  %58 = load ptr, ptr %9, align 8, !tbaa !3
  %59 = getelementptr inbounds nuw %struct._lv_chart_t, ptr %58, i32 0, i32 6
  %60 = getelementptr inbounds [2 x i32], ptr %59, i64 0, i64 1
  store i32 %57, ptr %60, align 4, !tbaa !7
  br label %65

61:                                               ; preds = %21
  br label %62

62:                                               ; preds = %61
  br label %63

63:                                               ; preds = %62
  br label %64

64:                                               ; preds = %63
  store i32 1, ptr %10, align 4
  br label %67

65:                                               ; preds = %52, %43, %34, %25
  %66 = load ptr, ptr %5, align 8, !tbaa !3
  call void @lv_chart_refresh(ptr noundef %66)
  store i32 0, ptr %10, align 4
  br label %67

67:                                               ; preds = %65, %64
  call void @llvm.lifetime.end.p0(i64 8, ptr %9) #5
  %68 = load i32, ptr %10, align 4
  switch i32 %68, label %70 [
    i32 0, label %69
    i32 1, label %69
  ]

69:                                               ; preds = %67, %67
  ret void

70:                                               ; preds = %67
  unreachable
}