; Function Attrs: nounwind uwtable
define void @lv_chart_set_range(ptr noundef %0, i32 noundef %1, i32 noundef %2, i32 noundef %3) local_unnamed_addr #0 {
  %5 = icmp eq i32 %3, %2
  %6 = zext i1 %5 to i32
  %7 = add nsw i32 %3, %6
  switch i32 %1, label %21 [
    i32 0, label %8
    i32 1, label %11
    i32 2, label %14
    i32 4, label %17
  ]

8:                                                ; preds = %4
  %9 = getelementptr inbounds nuw i8, ptr %0, i64 112
  store i32 %2, ptr %9, align 8, !tbaa !3
  %10 = getelementptr inbounds nuw i8, ptr %0, i64 120
  store i32 %7, ptr %10, align 8, !tbaa !3
  br label %20

11:                                               ; preds = %4
  %12 = getelementptr inbounds i8, ptr %0, i64 116
  store i32 %2, ptr %12, align 4, !tbaa !3
  %13 = getelementptr inbounds i8, ptr %0, i64 124
  store i32 %7, ptr %13, align 4, !tbaa !3
  br label %20

14:                                               ; preds = %4
  %15 = getelementptr inbounds nuw i8, ptr %0, i64 128
  store i32 %2, ptr %15, align 8, !tbaa !3
  %16 = getelementptr inbounds nuw i8, ptr %0, i64 136
  store i32 %7, ptr %16, align 8, !tbaa !3
  br label %20

17:                                               ; preds = %4
  %18 = getelementptr inbounds i8, ptr %0, i64 132
  store i32 %2, ptr %18, align 4, !tbaa !3
  %19 = getelementptr inbounds i8, ptr %0, i64 140
  store i32 %7, ptr %19, align 4, !tbaa !3
  br label %20

20:                                               ; preds = %17, %14, %11, %8
  tail call void @lv_obj_invalidate(ptr noundef nonnull %0) #8
  br label %21

21:                                               ; preds = %4, %20
  ret void
}